target datalayout = "e-m:e-p270:32:32-p271:32:32-p272:64:64-i64:64-i128:128-f80:128-n8:16:32:64-S128"
target triple = "x86_64-pc-linux-gnu"

%struct.MvcCoverStruct = type { i32, i32, i32, %struct.MvcListStruct, ptr, i32, ptr, ptr, ptr }
%struct.MvcListStruct = type { ptr, ptr, i32 }
%struct.MvcCubeStruct = type { ptr, i32, i32, [1 x i32] }

; Function Attrs: nounwind uwtable
define void @Mvc_CoverDivideByLiteralQuo(ptr noundef %0, i32 noundef %1) #0 {
  %3 = alloca ptr, align 8
  %4 = alloca i32, align 4
  %5 = alloca ptr, align 8
  %6 = alloca ptr, align 8
  %7 = alloca ptr, align 8
  %8 = alloca ptr, align 8
  store ptr %0, ptr %3, align 8
  store i32 %1, ptr %4, align 4
  store ptr null, ptr %7, align 8
  %9 = load ptr, ptr %3, align 8
  %10 = getelementptr inbounds %struct.MvcCoverStruct, ptr %9, i32 0, i32 3
  %11 = getelementptr inbounds %struct.MvcListStruct, ptr %10, i32 0, i32 0
  %12 = load ptr, ptr %11, align 8
  store ptr %12, ptr %5, align 8
  %13 = load ptr, ptr %5, align 8
  %14 = icmp ne ptr %13, null
  br i1 %14, label %15, label %19

15:                                               ; preds = %2
  %16 = load ptr, ptr %5, align 8
  %17 = getelementptr inbounds %struct.MvcCubeStruct, ptr %16, i32 0, i32 0
  %18 = load ptr, ptr %17, align 8
  br label %20

19:                                               ; preds = %2
  br label %20

20:                                               ; preds = %19, %15
  %21 = phi ptr [ %18, %15 ], [ null, %19 ]
  store ptr %21, ptr %6, align 8
  br label %22

22:                                               ; preds = %98, %20
  %23 = load ptr, ptr %5, align 8
  %24 = icmp ne ptr %23, null
  br i1 %24, label %25, label %100

25:                                               ; preds = %22
  %26 = load ptr, ptr %5, align 8
  %27 = getelementptr inbounds %struct.MvcCubeStruct, ptr %26, i32 0, i32 3
  %28 = load i32, ptr %4, align 4
  %29 = ashr i32 %28, 5
  %30 = sext i32 %29 to i64
  %31 = getelementptr inbounds [1 x i32], ptr %27, i64 0, i64 %30
  %32 = load i32, ptr %31, align 4
  %33 = load i32, ptr %4, align 4
  %34 = and i32 %33, 31
  %35 = shl i32 1, %34
  %36 = and i32 %32, %35
  %37 = icmp ugt i32 %36, 0
  %38 = zext i1 %37 to i32
  %39 = icmp eq i32 %38, 0
  br i1 %39, label %40, label %74

40:                                               ; preds = %25
  %41 = load ptr, ptr %3, align 8
  %42 = getelementptr inbounds %struct.MvcCoverStruct, ptr %41, i32 0, i32 3
  store ptr %42, ptr %8, align 8
  %43 = load ptr, ptr %7, align 8
  %44 = icmp eq ptr %43, null
  br i1 %44, label %45, label %51

45:                                               ; preds = %40
  %46 = load ptr, ptr %5, align 8
  %47 = getelementptr inbounds %struct.MvcCubeStruct, ptr %46, i32 0, i32 0
  %48 = load ptr, ptr %47, align 8
  %49 = load ptr, ptr %8, align 8
  %50 = getelementptr inbounds %struct.MvcListStruct, ptr %49, i32 0, i32 0
  store ptr %48, ptr %50, align 8
  br label %57

51:                                               ; preds = %40
  %52 = load ptr, ptr %5, align 8
  %53 = getelementptr inbounds %struct.MvcCubeStruct, ptr %52, i32 0, i32 0
  %54 = load ptr, ptr %53, align 8
  %55 = load ptr, ptr %7, align 8
  %56 = getelementptr inbounds %struct.MvcCubeStruct, ptr %55, i32 0, i32 0
  store ptr %54, ptr %56, align 8
  br label %57

57:                                               ; preds = %51, %45
  %58 = load ptr, ptr %8, align 8
  %59 = getelementptr inbounds %struct.MvcListStruct, ptr %58, i32 0, i32 1
  %60 = load ptr, ptr %59, align 8
  %61 = load ptr, ptr %5, align 8
  %62 = icmp eq ptr %60, %61
  br i1 %62, label %63, label %67

63:                                               ; preds = %57
  %64 = load ptr, ptr %7, align 8
  %65 = load ptr, ptr %8, align 8
  %66 = getelementptr inbounds %struct.MvcListStruct, ptr %65, i32 0, i32 1
  store ptr %64, ptr %66, align 8
  br label %67

67:                                               ; preds = %63, %57
  %68 = load ptr, ptr %8, align 8
  %69 = getelementptr inbounds %struct.MvcListStruct, ptr %68, i32 0, i32 2
  %70 = load i32, ptr %69, align 8
  %71 = add nsw i32 %70, -1
  store i32 %71, ptr %69, align 8
  %72 = load ptr, ptr %3, align 8
  %73 = load ptr, ptr %5, align 8
  call void @Mvc_CubeFree(ptr noundef %72, ptr noundef %73)
  br label %88

74:                                               ; preds = %25
  %75 = load i32, ptr %4, align 4
  %76 = and i32 %75, 31
  %77 = shl i32 1, %76
  %78 = xor i32 %77, -1
  %79 = load ptr, ptr %5, align 8
  %80 = getelementptr inbounds %struct.MvcCubeStruct, ptr %79, i32 0, i32 3
  %81 = load i32, ptr %4, align 4
  %82 = ashr i32 %81, 5
  %83 = sext i32 %82 to i64
  %84 = getelementptr inbounds [1 x i32], ptr %80, i64 0, i64 %83
  %85 = load i32, ptr %84, align 4
  %86 = and i32 %85, %78
  store i32 %86, ptr %84, align 4
  %87 = load ptr, ptr %5, align 8
  store ptr %87, ptr %7, align 8
  br label %88

88:                                               ; preds = %74, %67
  br label %89

89:                                               ; preds = %88
  %90 = load ptr, ptr %6, align 8
  store ptr %90, ptr %5, align 8
  %91 = load ptr, ptr %5, align 8
  %92 = icmp ne ptr %91, null
  br i1 %92, label %93, label %97

93:                                               ; preds = %89
  %94 = load ptr, ptr %5, align 8
  %95 = getelementptr inbounds %struct.MvcCubeStruct, ptr %94, i32 0, i32 0
  %96 = load ptr, ptr %95, align 8
  br label %98

97:                                               ; preds = %89
  br label %98

98:                                               ; preds = %97, %93
  %99 = phi ptr [ %96, %93 ], [ null, %97 ]
  store ptr %99, ptr %6, align 8
  br label %22, !llvm.loop !16

100:                                              ; preds = %22
  ret void
}