; Function Attrs: nounwind uwtable
define void @Mvc_CoverDivideByLiteralQuo(ptr noundef %0, i32 noundef %1) local_unnamed_addr #0 {
  %3 = getelementptr inbounds nuw i8, ptr %0, i64 16
  %4 = load ptr, ptr %3, align 8
  %.not = icmp eq ptr %4, null
  br i1 %.not, label %._crit_edge, label %.lr.ph

.lr.ph:                                           ; preds = %2
  %5 = ashr i32 %1, 5
  %6 = sext i32 %5 to i64
  %7 = and i32 %1, 31
  %8 = shl nuw i32 1, %7
  %9 = xor i32 %8, -1
  %10 = getelementptr inbounds nuw i8, ptr %0, i64 24
  %11 = getelementptr inbounds nuw i8, ptr %0, i64 32
  br label %12

12:                                               ; preds = %32, %.lr.ph
  %.034 = phi ptr [ %4, %.lr.ph ], [ %.02732, %32 ]
  %.02633 = phi ptr [ null, %.lr.ph ], [ %.1, %32 ]
  %.02732 = load ptr, ptr %.034, align 8
  %13 = getelementptr inbounds nuw i8, ptr %.034, i64 16
  %14 = getelementptr inbounds [1 x i32], ptr %13, i64 0, i64 %6
  %15 = load i32, ptr %14, align 4
  %16 = and i32 %15, %8
  %17 = icmp eq i32 %16, 0
  br i1 %17, label %18, label %30

18:                                               ; preds = %12
  %19 = icmp eq ptr %.02633, null
  %20 = load ptr, ptr %.034, align 8
  br i1 %19, label %21, label %22

21:                                               ; preds = %18
  store ptr %20, ptr %3, align 8
  br label %23

22:                                               ; preds = %18
  store ptr %20, ptr %.02633, align 8
  br label %23

23:                                               ; preds = %22, %21
  %24 = load ptr, ptr %10, align 8
  %25 = icmp eq ptr %24, %.034
  br i1 %25, label %26, label %27

26:                                               ; preds = %23
  store ptr %.02633, ptr %10, align 8
  br label %27

27:                                               ; preds = %26, %23
  %28 = load i32, ptr %11, align 8
  %29 = add nsw i32 %28, -1
  store i32 %29, ptr %11, align 8
  tail call void @Mvc_CubeFree(ptr noundef nonnull %0, ptr noundef nonnull %.034) #4
  br label %32

30:                                               ; preds = %12
  %31 = and i32 %15, %9
  store i32 %31, ptr %14, align 4
  br label %32

32:                                               ; preds = %27, %30
  %.1 = phi ptr [ %.02633, %27 ], [ %.034, %30 ]
  %.not30 = icmp eq ptr %.02732, null
  br i1 %.not30, label %._crit_edge, label %12, !llvm.loop !16

._crit_edge:                                      ; preds = %32, %2
  ret void
}